(igraph
Graph
p0
(dp1
S'labelingConstraints'
p2
(lp3
I2
aI1
asS'edges'
p4
(lp5
(igraph
Edge
p6
(dp7
S'direction'
p8
I1
sS'color'
p9
S'black'
p10
sS'selected'
p11
I00
sS'height'
p12
I5
sS'vs'
p13
(lp14
(igraph
Vertex
p15
(dp16
S'lcolor'
p17
g10
sg9
S'#ffffff'
p18
sS'text'
p19
I207082
sg11
I00
sS'label'
p20
I0
sS'shape'
p21
I0
sS'circle'
p22
I207081
sS'y'
p23
F-113.54258564835327
sS'x'
p24
F-43.963234930304083
sS'lsize'
p25
I16
sS'ly'
p26
I-12
sS'id'
p27
S'31.4538724894'
p28
sS'lx'
p29
I-12
sS'size'
p30
I5
sba(igraph
Vertex
p31
(dp32
g17
g10
sg9
g18
sg19
I207085
sg11
I00
sg20
I2
sg21
I0
sg22
I207084
sg23
F-44.388707374619038
sg24
F36.509119257476236
sg25
I16
sg26
I-12
sg27
S'31.4557014928'
p33
sg29
I-12
sg30
I5
sbasS'wrap'
p34
I00
sS'curved'
p35
I00
sS'line'
p36
I207068
sg27
S'31.4562800579'
p37
sg30
I1
sba(igraph
Edge
p38
(dp39
g8
I1
sg9
g10
sg11
I00
sg12
I5
sg13
(lp40
g31
a(igraph
Vertex
p41
(dp42
g17
g10
sg9
g18
sg19
I207088
sg11
I00
sg20
I4
sg21
I0
sg22
I207087
sg23
F24.883852747042702
sg24
F-42.412554867294865
sg25
I16
sg26
I-12
sg27
S'32.1806830198'
p43
sg29
I-12
sg30
I5
sbasg34
I00
sg35
I00
sg36
I207069
sg27
S'32.1810417246'
p44
sg30
I1
sba(igraph
Edge
p45
(dp46
g8
I1
sg9
g10
sg11
I00
sg12
I5
sg13
(lp47
g41
a(igraph
Vertex
p48
(dp49
g17
g10
sg9
g18
sg19
I207091
sg11
I00
sg20
I6
sg21
I0
sg22
I207090
sg23
F-43.020583923877631
sg24
F-122.66942711351001
sg25
I16
sg26
I-12
sg27
S'32.7859272617'
p50
sg29
I-12
sg30
I5
sbasg34
I00
sg35
I00
sg36
I207070
sg27
S'32.7860194522'
p51
sg30
I1
sba(igraph
Edge
p52
(dp53
g8
I1
sg9
g10
sg11
I00
sg12
I5
sg13
(lp54
g48
ag15
asg34
I00
sg35
I00
sg36
I207071
sg27
S'33.6544524514'
p55
sg30
I1
sba(igraph
Edge
p56
(dp57
g8
I1
sg9
g10
sg11
I00
sg12
I5
sg13
(lp58
g15
a(igraph
Vertex
p59
(dp60
g17
g10
sg9
g18
sg19
I207094
sg11
I00
sg20
I4
sg21
I0
sg22
I207093
sg23
F-216.76632000359609
sg24
F-45.107557800348204
sg25
I16
sg26
I-12
sg27
S'34.3371101634'
p61
sg29
I-12
sg30
I5
sbasg34
I00
sg35
I00
sg36
I207072
sg27
S'34.3371920174'
p62
sg30
I1
sba(igraph
Edge
p63
(dp64
g8
I1
sg9
g10
sg11
I00
sg12
I5
sg13
(lp65
g59
a(igraph
Vertex
p66
(dp67
g17
g10
sg9
g18
sg19
I207097
sg11
I00
sg20
I6
sg21
I0
sg22
I207096
sg23
F-148.78677759818009
sg24
F35.294302630045664
sg25
I16
sg26
I-12
sg27
S'35.0422735292'
p68
sg29
I-12
sg30
I5
sbasg34
I00
sg35
I00
sg36
I207073
sg27
S'35.0423766149'
p69
sg30
I1
sba(igraph
Edge
p70
(dp71
g8
I1
sg9
g10
sg11
I00
sg12
I5
sg13
(lp72
g66
a(igraph
Vertex
p73
(dp74
g17
g10
sg9
g18
sg19
I207100
sg11
I00
sg20
I0
sg21
I0
sg22
I207099
sg23
F-78.348638771120463
sg24
F-43.849047788084079
sg25
I16
sg26
I-12
sg27
S'35.5600859886'
p75
sg29
I-12
sg30
I5
sbasg34
I00
sg35
I00
sg36
I207074
sg27
S'35.5603206553'
p76
sg30
I1
sba(igraph
Edge
p77
(dp78
g8
I1
sg9
g10
sg11
I00
sg12
I5
sg13
(lp79
g73
a(igraph
Vertex
p80
(dp81
g17
g10
sg9
g18
sg19
I207103
sg11
I00
sg20
I2
sg21
I0
sg22
I207102
sg23
F-147.43452563661276
sg24
F-124.30547414896684
sg25
I16
sg26
I-12
sg27
S'36.1434877896'
p82
sg29
I-12
sg30
I5
sbasg34
I00
sg35
I00
sg36
I207075
sg27
S'36.1436098722'
p83
sg30
I1
sba(igraph
Edge
p84
(dp85
g8
I1
sg9
g10
sg11
I00
sg12
I5
sg13
(lp86
g80
ag59
asg34
I00
sg35
I00
sg36
I207076
sg27
S'37.2610918427'
p87
sg30
I1
sba(igraph
Edge
p88
(dp89
g8
I1
sg9
g10
sg11
I00
sg12
I5
sg13
(lp90
g66
ag31
asg34
I00
sg35
I00
sg36
I207077
sg27
S'39.8293744037'
p91
sg30
I1
sba(igraph
Edge
p92
(dp93
g8
I1
sg9
g10
sg11
I00
sg12
I5
sg13
(lp94
g73
ag41
asg34
I00
sg35
I00
sg36
I207078
sg27
S'44.1895408495'
p95
sg30
I1
sba(igraph
Edge
p96
(dp97
g8
I1
sg9
g10
sg11
I00
sg12
I5
sg13
(lp98
g80
ag48
asg34
I00
sg35
I00
sg36
I207079
sg27
S'45.8878703858'
p99
sg30
I1
sbasS'vertices'
p100
(lp101
g15
ag31
ag41
ag48
ag59
ag66
ag73
ag80
asS'tags'
p102
(lp103
sb.