(igraph
Graph
p0
(dp1
S'labelingConstraints'
p2
(lp3
I2
aI1
asS'edges'
p4
(lp5
(igraph
Edge
p6
(dp7
S'direction'
p8
I1
sS'color'
p9
S'black'
p10
sS'selected'
p11
I00
sS'height'
p12
I5
sS'vs'
p13
(lp14
(igraph
Vertex
p15
(dp16
g9
S'#ffffff'
p17
sS'text'
p18
I125054
sg11
I00
sS'label'
p19
I0
sS'lsize'
p20
I16
sS'shape'
p21
I0
sS'ly'
p22
I-12
sS'y'
p23
F166.0
sS'x'
p24
F-66.0
sS'circle'
p25
I125053
sS'lcolor'
p26
g10
sS'id'
p27
S'260.426307813'
p28
sS'lx'
p29
I-12
sS'size'
p30
I5
sba(igraph
Vertex
p31
(dp32
g9
g17
sg18
I125057
sg11
I00
sg19
I2
sg20
I16
sg21
I0
sg22
I-12
sg23
F164.0
sg24
F19.0
sg25
I125056
sg26
g10
sg27
S'260.426605895'
p33
sg29
I-12
sg30
I5
sbasS'wrap'
p34
I00
sS'curved'
p35
I00
sS'line'
p36
I125028
sg27
S'260.426640816'
p37
sg30
I1
sba(igraph
Edge
p38
(dp39
g8
I1
sg9
g10
sg11
I00
sg12
I5
sg13
(lp40
g31
a(igraph
Vertex
p41
(dp42
g9
g17
sg18
I125060
sg11
I00
sg19
I4
sg20
I16
sg21
I0
sg22
I-12
sg23
F83.0
sg24
F96.0
sg25
I125059
sg26
g10
sg27
S'260.983428061'
p43
sg29
I-12
sg30
I5
sbasg34
I00
sg35
I00
sg36
I125029
sg27
S'260.98348589'
p44
sg30
I1
sba(igraph
Edge
p45
(dp46
g8
I1
sg9
g10
sg11
I00
sg12
I5
sg13
(lp47
g41
a(igraph
Vertex
p48
(dp49
g9
g17
sg18
I125063
sg11
I00
sg19
I0
sg20
I16
sg21
I0
sg22
I-12
sg23
F-54.0
sg24
F94.0
sg25
I125062
sg26
g10
sg27
S'261.522862543'
p50
sg29
I-12
sg30
I5
sbasg34
I00
sg35
I00
sg36
I125030
sg27
S'261.522924562'
p51
sg30
I1
sba(igraph
Edge
p52
(dp53
g8
I1
sg9
g10
sg11
I00
sg12
I5
sg13
(lp54
(igraph
Vertex
p55
(dp56
g9
g17
sg18
I125066
sg11
I00
sg19
I2
sg20
I16
sg21
I0
sg22
I-12
sg23
F-32.0
sg24
F-164.0
sg25
I125065
sg26
g10
sg27
S'263.486251744'
p57
sg29
I-12
sg30
I5
sba(igraph
Vertex
p58
(dp59
g9
g17
sg18
I125069
sg11
I00
sg19
I6
sg20
I16
sg21
I0
sg22
I-12
sg23
F35.0
sg24
F-172.0
sg25
I125068
sg26
g10
sg27
S'265.320339876'
p60
sg29
I-12
sg30
I5
sbasg34
I00
sg35
I00
sg36
I125031
sg27
S'265.32048319'
p61
sg30
I1
sba(igraph
Edge
p62
(dp63
g8
I1
sg9
g10
sg11
I00
sg12
I5
sg13
(lp64
g58
ag15
asg34
I00
sg35
I00
sg36
I125032
sg27
S'266.338256399'
p65
sg30
I1
sba(igraph
Edge
p66
(dp67
g8
I1
sg9
g10
sg11
I00
sg12
I5
sg13
(lp68
g15
a(igraph
Vertex
p69
(dp70
g9
g17
sg18
I125072
sg11
I00
sg19
I4
sg20
I16
sg21
I0
sg22
I-12
sg23
F95.0
sg24
F7.0
sg25
I125071
sg26
g10
sg27
S'269.715183354'
p71
sg29
I-12
sg30
I5
sbasg34
I00
sg35
I00
sg36
I125033
sg27
S'269.715321361'
p72
sg30
I1
sba(igraph
Edge
p73
(dp74
g8
I1
sg9
g10
sg11
I00
sg12
I5
sg13
(lp75
g69
a(igraph
Vertex
p76
(dp77
g9
g17
sg18
I125075
sg11
I00
sg19
I6
sg20
I16
sg21
I0
sg22
I-12
sg23
F99.0
sg24
F-53.0
sg25
I125074
sg26
g10
sg27
S'270.712596713'
p78
sg29
I-12
sg30
I5
sbasg34
I00
sg35
I00
sg36
I125034
sg27
S'270.712761817'
p79
sg30
I1
sba(igraph
Edge
p80
(dp81
g8
I1
sg9
g10
sg11
I00
sg12
I5
sg13
(lp82
g76
a(igraph
Vertex
p83
(dp84
g9
g17
sg18
I125078
sg11
I00
sg19
I0
sg20
I16
sg21
I0
sg22
I-12
sg23
F45.0
sg24
F-104.0
sg25
I125077
sg26
g10
sg27
S'271.978382448'
p85
sg29
I-12
sg30
I5
sbasg34
I00
sg35
I00
sg36
I125035
sg27
S'271.978546994'
p86
sg30
I1
sba(igraph
Edge
p87
(dp88
g8
I1
sg9
g10
sg11
I00
sg12
I5
sg13
(lp89
g83
a(igraph
Vertex
p90
(dp91
g9
g17
sg18
I125081
sg11
I00
sg19
I4
sg20
I16
sg21
I0
sg22
I-12
sg23
F-18.0
sg24
F-104.0
sg25
I125080
sg26
g10
sg27
S'272.563677506'
p92
sg29
I-12
sg30
I5
sbasg34
I00
sg35
I00
sg36
I125036
sg27
S'272.563864681'
p93
sg30
I1
sba(igraph
Edge
p94
(dp95
g8
I1
sg9
g10
sg11
I00
sg12
I5
sg13
(lp96
(igraph
Vertex
p97
(dp98
g9
g17
sg18
I125084
sg11
I00
sg19
I6
sg20
I16
sg21
I0
sg22
I-12
sg23
F-18.0
sg24
F32.0
sg25
I125083
sg26
g10
sg27
S'274.049418292'
p99
sg29
I-12
sg30
I5
sba(igraph
Vertex
p100
(dp101
g9
g17
sg18
I125087
sg11
I00
sg19
I2
sg20
I16
sg21
I0
sg22
I-12
sg23
F31.0
sg24
F35.0
sg25
I125086
sg26
g10
sg27
S'274.551498305'
p102
sg29
I-12
sg30
I5
sbasg34
I00
sg35
I00
sg36
I125037
sg27
S'274.551729619'
p103
sg30
I1
sba(igraph
Edge
p104
(dp105
g8
I1
sg9
g10
sg11
I00
sg12
I5
sg13
(lp106
g100
ag69
asg34
I00
sg35
I00
sg36
I125038
sg27
S'275.447442063'
p107
sg30
I1
sba(igraph
Edge
p108
(dp109
g8
I1
sg9
g10
sg11
I00
sg12
I5
sg13
(lp110
g31
ag76
asg34
I00
sg35
I00
sg36
I125039
sg27
S'277.108578325'
p111
sg30
I1
sba(igraph
Edge
p112
(dp113
g8
I1
sg9
g10
sg11
I00
sg12
I5
sg13
(lp114
g58
ag90
asg34
I00
sg35
I00
sg36
I125040
sg27
S'278.660554903'
p115
sg30
I1
sba(igraph
Edge
p116
(dp117
g8
I1
sg9
g10
sg11
I00
sg12
I5
sg13
(lp118
g83
ag55
asg34
I00
sg35
I00
sg36
I125041
sg27
S'280.114795596'
p119
sg30
I1
sba(igraph
Edge
p120
(dp121
g8
I1
sg9
g10
sg11
I00
sg12
I5
sg13
(lp122
g97
ag41
asg34
I00
sg35
I00
sg36
I125042
sg27
S'288.005454045'
p123
sg30
I1
sba(igraph
Edge
p124
(dp125
g8
I1
sg9
g10
sg11
I00
sg12
I5
sg13
(lp126
g100
ag48
asg34
I00
sg35
I00
sg36
I125043
sg27
S'289.931249083'
p127
sg30
I1
sba(igraph
Edge
p128
(dp129
g8
I1
sg9
g10
sg11
I00
sg12
I5
sg13
(lp130
g55
a(igraph
Vertex
p131
(dp132
g9
g17
sg18
I125090
sg11
I00
sg19
I4
sg20
I16
sg21
I0
sg22
I-12
sg23
F-117.0
sg24
F-66.0
sg25
I125089
sg26
g10
sg27
S'532.634393477'
p133
sg29
I-12
sg30
I5
sbasg34
I00
sg35
I00
sg36
I125044
sg27
S'532.634608309'
p134
sg30
I1
sba(igraph
Edge
p135
(dp136
g8
I1
sg9
g10
sg11
I00
sg12
I5
sg13
(lp137
g131
a(igraph
Vertex
p138
(dp139
g9
g17
sg18
I125093
sg11
I00
sg19
I6
sg20
I16
sg21
I0
sg22
I-12
sg23
F-120.0
sg24
F13.0
sg25
I125092
sg26
g10
sg27
S'533.240848488'
p140
sg29
I-12
sg30
I5
sbasg34
I00
sg35
I00
sg36
I125045
sg27
S'533.241077288'
p141
sg30
I1
sba(igraph
Edge
p142
(dp143
g8
I1
sg9
g10
sg11
I00
sg12
I5
sg13
(lp144
g138
ag48
asg34
I00
sg35
I00
sg36
I125046
sg27
S'534.709423963'
p145
sg30
I1
sba(igraph
Edge
p146
(dp147
g8
I1
sg9
g10
sg11
I00
sg12
I5
sg13
(lp148
g90
a(igraph
Vertex
p149
(dp150
g9
g17
sg18
I125096
sg11
I00
sg19
I2
sg20
I16
sg21
I0
sg22
I-12
sg23
F-61.0
sg24
F-59.0
sg25
I125095
sg26
g10
sg27
S'535.579282004'
p151
sg29
I-12
sg30
I5
sbasg34
I00
sg35
I00
sg36
I125047
sg27
S'535.579579528'
p152
sg30
I1
sba(igraph
Edge
p153
(dp154
g8
I1
sg9
g10
sg11
I00
sg12
I5
sg13
(lp155
g149
a(igraph
Vertex
p156
(dp157
g9
g17
sg18
I125099
sg11
I00
sg19
I0
sg20
I16
sg21
I0
sg22
I-12
sg23
F-64.0
sg24
F-9.0
sg25
I125098
sg26
g10
sg27
S'535.959347627'
p158
sg29
I-12
sg30
I5
sbasg34
I00
sg35
I00
sg36
I125048
sg27
S'535.959616376'
p159
sg30
I1
sba(igraph
Edge
p160
(dp161
g8
I1
sg9
g10
sg11
I00
sg12
I5
sg13
(lp162
g156
ag97
asg34
I00
sg35
I00
sg36
I125049
sg27
S'536.544740183'
p163
sg30
I1
sba(igraph
Edge
p164
(dp165
g8
I1
sg9
g10
sg11
I00
sg12
I5
sg13
(lp166
g156
ag131
asg34
I00
sg35
I00
sg36
I125050
sg27
S'537.604442743'
p167
sg30
I1
sba(igraph
Edge
p168
(dp169
g8
I1
sg9
g10
sg11
I00
sg12
I5
sg13
(lp170
g149
ag138
asg34
I00
sg35
I00
sg36
I125051
sg27
S'541.058428934'
p171
sg30
I1
sbasS'vertices'
p172
(lp173
g15
ag31
ag41
ag48
ag55
ag58
ag69
ag76
ag83
ag90
ag97
ag100
ag131
ag138
ag149
ag156
asS'tags'
p174
(lp175
sb.