(igraph
Graph
p0
(dp1
S'labelingConstraints'
p2
(lp3
I2
aI1
asS'edges'
p4
(lp5
(igraph
Edge
p6
(dp7
S'direction'
p8
I1
sS'color'
p9
S'black'
p10
sS'selected'
p11
I01
sS'height'
p12
I5
sS'vs'
p13
(lp14
(igraph
Vertex
p15
(dp16
g9
S'#ffffff'
p17
sS'text'
p18
I663377
sg11
I01
sS'label'
p19
I2
sS'lsize'
p20
I16
sS'shape'
p21
I0
sS'ly'
p22
I-12
sS'y'
p23
F-213.15828213496351
sS'x'
p24
F-96.545356123384309
sS'circle'
p25
I663376
sS'lcolor'
p26
g10
sS'id'
p27
S'22.4557165785'
p28
sS'lx'
p29
I-12
sS'size'
p30
I5
sba(igraph
Vertex
p31
(dp32
g9
g17
sg18
I663393
sg11
I01
sg19
I4
sg20
I16
sg21
I0
sg22
I-12
sg23
F-122.75407770411856
sg24
F-41.076778922996603
sg25
I663392
sg26
g10
sg27
S'24.8800794514'
p33
sg29
I-12
sg30
I5
sbasS'wrap'
p34
I00
sS'curved'
p35
I00
sS'line'
p36
I663335
sg27
S'51.4700848851'
p37
sg30
I1
sba(igraph
Edge
p38
(dp39
g8
I1
sg9
g10
sg11
I01
sg12
I5
sg13
(lp40
g15
a(igraph
Vertex
p41
(dp42
g9
g17
sg18
I663409
sg11
I01
sg19
I6
sg20
I16
sg21
I0
sg22
I-12
sg23
F-123.22540288863375
sg24
F-147.17517489317578
sg25
I663408
sg26
g10
sg27
S'27.2864953507'
p43
sg29
I-12
sg30
I5
sbasg34
I00
sg35
I00
sg36
I663337
sg27
S'52.9792021053'
p44
sg30
I1
sba(igraph
Edge
p45
(dp46
g8
I1
sg9
g10
sg11
I01
sg12
I5
sg13
(lp47
g41
ag31
asg34
I00
sg35
I00
sg36
I663339
sg27
S'53.9526244257'
p48
sg30
I1
sba(igraph
Edge
p49
(dp50
g8
I1
sg9
g10
sg11
I01
sg12
I5
sg13
(lp51
(igraph
Vertex
p52
(dp53
g9
g17
sg18
I663381
sg11
I01
sg19
I4
sg20
I16
sg21
I0
sg22
I-12
sg23
F-215.86168415565828
sg24
F101.53794491082839
sg25
I663380
sg26
g10
sg27
S'22.9280461623'
p54
sg29
I-12
sg30
I5
sba(igraph
Vertex
p55
(dp56
g9
g17
sg18
I663397
sg11
I01
sg19
I6
sg20
I16
sg21
I0
sg22
I-12
sg23
F-127.07178736989401
sg24
F153.88304802064249
sg25
I663396
sg26
g10
sg27
S'25.2709173931'
p57
sg29
I-12
sg30
I5
sbasg34
I00
sg35
I00
sg36
I663341
sg27
S'55.4614770872'
p58
sg30
I1
sba(igraph
Edge
p59
(dp60
g8
I1
sg9
g10
sg11
I01
sg12
I5
sg13
(lp61
g55
a(igraph
Vertex
p62
(dp63
g9
g17
sg18
I663413
sg11
I01
sg19
I2
sg20
I16
sg21
I0
sg22
I-12
sg23
F-124.16132854164921
sg24
F47.913109632208212
sg25
I663412
sg26
g10
sg27
S'27.9867960872'
p64
sg29
I-12
sg30
I5
sbasg34
I00
sg35
I00
sg36
I663343
sg27
S'56.7642865224'
p65
sg30
I1
sba(igraph
Edge
p66
(dp67
g8
I1
sg9
g10
sg11
I01
sg12
I5
sg13
(lp68
g62
ag52
asg34
I00
sg35
I00
sg36
I663345
sg27
S'58.3211223773'
p69
sg30
I1
sba(igraph
Edge
p70
(dp71
g8
I1
sg9
g10
sg11
I01
sg12
I5
sg13
(lp72
(igraph
Vertex
p73
(dp74
g9
g17
sg18
I663385
sg11
I01
sg19
I6
sg20
I16
sg21
I0
sg22
I-12
sg23
F-46.436768099610433
sg24
F4.5485899518831596
sg25
I663384
sg26
g10
sg27
S'23.3390316367'
p75
sg29
I-12
sg30
I5
sba(igraph
Vertex
p76
(dp77
g9
g17
sg18
I663401
sg11
I01
sg19
I2
sg20
I16
sg21
I0
sg22
I-12
sg23
F45.29431609508093
sg24
F57.234738927566944
sg25
I663400
sg26
g10
sg27
S'25.6623970365'
p78
sg29
I-12
sg30
I5
sbasg34
I00
sg35
I00
sg36
I663347
sg27
S'59.7275555971'
p79
sg30
I1
sba(igraph
Edge
p80
(dp81
g8
I1
sg9
g10
sg11
I01
sg12
I5
sg13
(lp82
g76
a(igraph
Vertex
p83
(dp84
g9
g17
sg18
I663417
sg11
I01
sg19
I4
sg20
I16
sg21
I0
sg22
I-12
sg23
F46.821111475758066
sg24
F-45.909603029531546
sg25
I663416
sg26
g10
sg27
S'28.748501276'
p85
sg29
I-12
sg30
I5
sbasg34
I00
sg35
I00
sg36
I663349
sg27
S'60.6813952611'
p86
sg30
I1
sba(igraph
Edge
p87
(dp88
g8
I1
sg9
g10
sg11
I01
sg12
I5
sg13
(lp89
g83
ag73
asg34
I00
sg35
I00
sg36
I663351
sg27
S'61.6415868497'
p90
sg30
I1
sba(igraph
Edge
p91
(dp92
g8
I1
sg9
g10
sg11
I01
sg12
I5
sg13
(lp93
g73
a(igraph
Vertex
p94
(dp95
g9
g17
sg18
I663373
sg11
I01
sg19
I0
sg20
I16
sg21
I0
sg22
I-12
sg23
F-168.3859600277242
sg24
F2.7994518458088975
sg25
I663372
sg26
g10
sg27
S'21.1808355531'
p96
sg29
I-12
sg30
I5
sbasg34
I00
sg35
I00
sg36
I663353
sg27
S'63.411911011'
p97
sg30
I1
sba(igraph
Edge
p98
(dp99
g8
I1
sg9
g10
sg11
I01
sg12
I5
sg13
(lp100
g94
ag52
asg34
I00
sg35
I00
sg36
I663355
sg27
S'64.6591407567'
p101
sg30
I1
sba(igraph
Edge
p102
(dp103
g8
I1
sg9
g10
sg11
I01
sg12
I5
sg13
(lp104
g94
ag15
asg34
I00
sg35
I00
sg36
I663357
sg27
S'71.196266844'
p105
sg30
I1
sba(igraph
Edge
p106
(dp107
g8
I1
sg9
g10
sg11
I01
sg12
I5
sg13
(lp108
(igraph
Vertex
p109
(dp110
g9
g17
sg18
I663389
sg11
I01
sg19
I0
sg20
I16
sg21
I0
sg22
I-12
sg23
F-63.206221088517502
sg24
F65.422103308724772
sg25
I663388
sg26
g10
sg27
S'24.2633957668'
p111
sg29
I-12
sg30
I5
sbag31
asg34
I00
sg35
I00
sg36
I663359
sg27
S'77.4513534541'
p112
sg30
I1
sba(igraph
Edge
p113
(dp114
g8
I1
sg9
g10
sg11
I01
sg12
I5
sg13
(lp115
g109
ag55
asg34
I00
sg35
I00
sg36
I663361
sg27
S'79.2972090028'
p116
sg30
I1
sba(igraph
Edge
p117
(dp118
g8
I1
sg9
g10
sg11
I01
sg12
I5
sg13
(lp119
g109
ag76
asg34
I00
sg35
I00
sg36
I663363
sg27
S'81.5784397179'
p120
sg30
I1
sba(igraph
Edge
p121
(dp122
g8
I1
sg9
g10
sg11
I01
sg12
I5
sg13
(lp123
(igraph
Vertex
p124
(dp125
g9
g17
sg18
I663405
sg11
I01
sg19
I0
sg20
I16
sg21
I0
sg22
I-12
sg23
F-61.863610276631
sg24
F-56.70010267385738
sg25
I663404
sg26
g10
sg27
S'26.8537534798'
p126
sg29
I-12
sg30
I5
sbag41
asg34
I00
sg35
I00
sg36
I663365
sg27
S'83.7621018873'
p127
sg30
I1
sba(igraph
Edge
p128
(dp129
g8
I1
sg9
g10
sg11
I01
sg12
I5
sg13
(lp130
g124
ag62
asg34
I00
sg35
I00
sg36
I663367
sg27
S'85.2102901346'
p131
sg30
I1
sba(igraph
Edge
p132
(dp133
g8
I1
sg9
g10
sg11
I01
sg12
I5
sg13
(lp134
g124
ag83
asg34
I00
sg35
I00
sg36
I663369
sg27
S'87.2456482598'
p135
sg30
I1
sbasS'vertices'
p136
(lp137
g94
ag15
ag52
ag73
ag109
ag31
ag55
ag76
ag124
ag41
ag62
ag83
asS'tags'
p138
(lp139
sb.