(igraph
Graph
p0
(dp1
S'labelingConstraints'
p2
(lp3
I2
aI1
asS'edges'
p4
(lp5
(igraph
Edge
p6
(dp7
S'direction'
p8
I1
sS'color'
p9
S'black'
p10
sS'selected'
p11
I00
sS'height'
p12
I5
sS'vs'
p13
(lp14
(igraph
Vertex
p15
(dp16
S'lcolor'
p17
g10
sg9
S'#ffffff'
p18
sS'text'
p19
I303536
sg11
I00
sS'label'
p20
I0
sS'shape'
p21
I0
sS'circle'
p22
I303535
sS'y'
p23
F-80.250131554016065
sS'x'
p24
F-40.847177891427378
sS'lsize'
p25
I16
sS'ly'
p26
I-12
sS'id'
p27
S'13.8229604601'
p28
sS'lx'
p29
I-12
sS'size'
p30
I5
sba(igraph
Vertex
p31
(dp32
g17
g10
sg9
g18
sg19
I303539
sg11
I00
sg20
I2
sg21
I0
sg22
I303538
sg23
F-170.74781981092201
sg24
F-80.532943952076351
sg25
I16
sg26
I-12
sg27
S'13.8247511904'
p33
sg29
I-12
sg30
I5
sbasS'wrap'
p34
I00
sS'curved'
p35
I00
sS'line'
p36
I303522
sg27
S'13.8253412096'
p37
sg30
I1
sba(igraph
Edge
p38
(dp39
g8
I1
sg9
g10
sg11
I00
sg12
I5
sg13
(lp40
g15
a(igraph
Vertex
p41
(dp42
g17
g10
sg9
g18
sg19
I303542
sg11
I00
sg20
I4
sg21
I0
sg22
I303541
sg23
F-76.86652745598137
sg24
F-137.44209936222413
sg25
I16
sg26
I-12
sg27
S'14.7302106832'
p43
sg29
I-12
sg30
I5
sbasg34
I00
sg35
I00
sg36
I303523
sg27
S'14.7305769309'
p44
sg30
I1
sba(igraph
Edge
p45
(dp46
g8
I1
sg9
g10
sg11
I00
sg12
I5
sg13
(lp47
g15
a(igraph
Vertex
p48
(dp49
g17
g10
sg9
g18
sg19
I303545
sg11
I00
sg20
I6
sg21
I0
sg22
I303544
sg23
F14.163811660423269
sg24
F-76.950111944719268
sg25
I16
sg26
I-12
sg27
S'15.7396596495'
p50
sg29
I-12
sg30
I5
sbasg34
I00
sg35
I00
sg36
I303524
sg27
S'15.7397602209'
p51
sg30
I1
sba(igraph
Edge
p52
(dp53
g8
I1
sg9
g10
sg11
I00
sg12
I5
sg13
(lp54
g31
ag41
asg34
I00
sg35
I00
sg36
I303525
sg27
S'20.3201568914'
p55
sg30
I1
sba(igraph
Edge
p56
(dp57
g8
I1
sg9
g10
sg11
I00
sg12
I5
sg13
(lp58
g48
ag41
asg34
I00
sg35
I00
sg36
I303526
sg27
S'26.3973560886'
p59
sg30
I1
sba(igraph
Edge
p60
(dp61
g8
I1
sg9
g10
sg11
I00
sg12
I5
sg13
(lp62
(igraph
Vertex
p63
(dp64
g17
g10
sg9
g18
sg19
I303548
sg11
I00
sg20
I0
sg21
I0
sg22
I303547
sg23
F-69.178550847980077
sg24
F94.017497149840338
sg25
I16
sg26
I-12
sg27
S'27.3223175012'
p65
sg29
I-12
sg30
I5
sba(igraph
Vertex
p66
(dp67
g17
g10
sg9
g18
sg19
I303552
sg11
I01
sg20
I6
sg21
I0
sg22
I303551
sg23
F-160.0
sg24
F28.0
sg25
I16
sg26
I-12
sg27
S'27.3234327268'
p68
sg29
I-12
sg30
I5
sbasg34
I00
sg35
I00
sg36
I303527
sg27
S'27.3235257554'
p69
sg30
I1
sba(igraph
Edge
p70
(dp71
g8
I1
sg9
g10
sg11
I00
sg12
I5
sg13
(lp72
g66
a(igraph
Vertex
p73
(dp74
g17
g10
sg9
g18
sg19
I303555
sg11
I00
sg20
I4
sg21
I0
sg22
I303554
sg23
F-66.446437754838172
sg24
F-1.8114689609924433
sg25
I16
sg26
I-12
sg27
S'27.8821112739'
p75
sg29
I-12
sg30
I5
sbasg34
I00
sg35
I00
sg36
I303528
sg27
S'27.8822182708'
p76
sg30
I1
sba(igraph
Edge
p77
(dp78
g8
I1
sg9
g10
sg11
I00
sg12
I5
sg13
(lp79
g73
ag63
asg34
I00
sg35
I00
sg36
I303529
sg27
S'28.6900603289'
p80
sg30
I1
sba(igraph
Edge
p81
(dp82
g8
I1
sg9
g10
sg11
I00
sg12
I5
sg13
(lp83
g63
a(igraph
Vertex
p84
(dp85
g17
g10
sg9
g18
sg19
I303559
sg11
I01
sg20
I2
sg21
I0
sg22
I303558
sg23
F23.819049976869234
sg24
F31.423335786223827
sg25
I16
sg26
I-12
sg27
S'29.3745766571'
p86
sg29
I-12
sg30
I5
sbasg34
I00
sg35
I00
sg36
I303530
sg27
S'29.3747202508'
p87
sg30
I1
sba(igraph
Edge
p88
(dp89
g8
I1
sg9
g10
sg11
I00
sg12
I5
sg13
(lp90
g84
ag73
asg34
I00
sg35
I00
sg36
I303531
sg27
S'30.0419768434'
p91
sg30
I1
sba(igraph
Edge
p92
(dp93
g8
I1
sg9
g10
sg11
I00
sg12
I5
sg13
(lp94
g84
ag48
asg34
I00
sg35
I00
sg36
I303532
sg27
S'31.8231934506'
p95
sg30
I1
sba(igraph
Edge
p96
(dp97
g8
I1
sg9
g10
sg11
I00
sg12
I5
sg13
(lp98
g31
ag66
asg34
I00
sg35
I00
sg36
I303533
sg27
S'33.7286088036'
p99
sg30
I1
sbasS'vertices'
p100
(lp101
g15
ag31
ag41
ag48
ag63
ag66
ag73
ag84
asS'tags'
p102
(lp103
sb.